; Function Attrs: mustprogress nofree norecurse nosync nounwind willreturn memory(argmem: readwrite) uwtable
define dso_local noundef zeroext i1 @_ZN4base9Histogram28InspectConstructionArgumentsERKNSt7__cxx1112basic_stringIcSt11char_traitsIcESaIcEEEPiS9_Pj(ptr nocapture noundef nonnull readnone align 8 dereferenceable(32) %name, ptr nocapture noundef %minimum, ptr nocapture noundef %maximum, ptr nocapture noundef %bucket_count) local_unnamed_addr #3 align 2 {
entry:
  %0 = load i32, ptr %minimum, align 4
  %cmp = icmp slt i32 %0, 1
  br i1 %cmp, label %if.then, label %if.end

if.then:                                          ; preds = %entry
  store i32 1, ptr %minimum, align 4
  br label %if.end

if.end:                                           ; preds = %if.then, %entry
  %1 = load i32, ptr %maximum, align 4
  %2 = load i32, ptr @_ZN4base13HistogramBase15kSampleType_MAXE, align 4
  %cmp1.not = icmp slt i32 %1, %2
  br i1 %cmp1.not, label %if.end3, label %if.then2

if.then2:                                         ; preds = %if.end
  %sub = add nsw i32 %2, -1
  store i32 %sub, ptr %maximum, align 4
  br label %if.end3

if.end3:                                          ; preds = %if.then2, %if.end
  %3 = phi i32 [ %sub, %if.then2 ], [ %1, %if.end ]
  %4 = load i32, ptr %bucket_count, align 4
  %cmp4 = icmp ugt i32 %4, 16383
  br i1 %cmp4, label %if.end6.thread, label %if.end6

if.end6:                                          ; preds = %if.end3
  %5 = load i32, ptr %minimum, align 4
  %cmp7.not = icmp sge i32 %5, %3
  %cmp10 = icmp ult i32 %4, 3
  %or.cond = or i1 %cmp7.not, %cmp10
  br i1 %or.cond, label %return, label %if.end12

if.end6.thread:                                   ; preds = %if.end3
  store i32 16383, ptr %bucket_count, align 4
  %.pre = load i32, ptr %maximum, align 4
  %6 = load i32, ptr %minimum, align 4
  %cmp7.not13 = icmp slt i32 %6, %.pre
  br i1 %cmp7.not13, label %if.end12, label %return

if.end12:                                         ; preds = %if.end6, %if.end6.thread
  %7 = phi i32 [ 16383, %if.end6.thread ], [ %4, %if.end6 ]
  %8 = phi i32 [ %.pre, %if.end6.thread ], [ %3, %if.end6 ]
  %9 = phi i32 [ %6, %if.end6.thread ], [ %5, %if.end6 ]
  %reass.sub = sub i32 %8, %9
  %add = add i32 %reass.sub, 2
  %cmp14 = icmp ule i32 %7, %add
  br label %return

return:                                           ; preds = %if.end6.thread, %if.end12, %if.end6
  %retval.0 = phi i1 [ false, %if.end6 ], [ %cmp14, %if.end12 ], [ false, %if.end6.thread ]
  ret i1 %retval.0
}